ARM GAS  /tmp/ccTbYGp2.s 			page 1


   1              		.cpu cortex-m4
   2              		.eabi_attribute 27, 1
   3              		.eabi_attribute 28, 1
   4              		.eabi_attribute 20, 1
   5              		.eabi_attribute 21, 1
   6              		.eabi_attribute 23, 3
   7              		.eabi_attribute 24, 1
   8              		.eabi_attribute 25, 1
   9              		.eabi_attribute 26, 1
  10              		.eabi_attribute 30, 2
  11              		.eabi_attribute 34, 1
  12              		.eabi_attribute 18, 4
  13              		.file	"main.c"
  14              		.text
  15              	.Ltext0:
  16              		.cfi_sections	.debug_frame
  17              		.section	.text.startup.main,"ax",%progbits
  18              		.align	1
  19              		.p2align 4,,15
  20              		.global	main
  21              		.syntax unified
  22              		.thumb
  23              		.thumb_func
  24              		.fpu fpv4-sp-d16
  25              		.type	main, %function
  26              	main:
  27              	.LFB259:
  28              		.file 1 "main.c"
  29              		.loc 1 16 0
  30              		.cfi_startproc
  31              		@ Volatile: function does not return.
  32              		@ args = 0, pretend = 0, frame = 8
  33              		@ frame_needed = 0, uses_anonymous_args = 0
  34 0000 00B5     		push	{lr}
  35              		.cfi_def_cfa_offset 4
  36              		.cfi_offset 14, -4
  37 0002 114B     		ldr	r3, .L6
  38 0004 83B0     		sub	sp, sp, #12
  39              		.cfi_def_cfa_offset 16
  40              		.loc 1 16 0
  41 0006 1B68     		ldr	r3, [r3]
  42 0008 0193     		str	r3, [sp, #4]
  43              		.loc 1 18 0
  44 000a FFF7FEFF 		bl	halInit
  45              	.LVL0:
  46              		.loc 1 19 0
  47 000e FFF7FEFF 		bl	chSysInit
  48              	.LVL1:
  49              		.loc 1 20 0
  50 0012 FFF7FEFF 		bl	mpu_init
  51              	.LVL2:
  52              		.loc 1 23 0
  53 0016 FFF7FEFF 		bl	clear_leds
  54              	.LVL3:
  55              		.loc 1 24 0
  56 001a FFF7FEFF 		bl	spi_comm_start
  57              	.LVL4:
ARM GAS  /tmp/ccTbYGp2.s 			page 2


  58              	.L2:
  59              		.loc 1 34 0 discriminator 1
  60 001e 0023     		movs	r3, #0
  61 0020 1A46     		mov	r2, r3
  62 0022 1846     		mov	r0, r3
  63 0024 0821     		movs	r1, #8
  64 0026 FFF7FEFF 		bl	set_rgb_led
  65              	.LVL5:
  66              		.loc 1 37 0 discriminator 1
  67 002a 4FF4FA70 		mov	r0, #500
  68 002e FFF7FEFF 		bl	chThdSleep
  69              	.LVL6:
  70              		.loc 1 38 0 discriminator 1
  71 0032 0023     		movs	r3, #0
  72 0034 1846     		mov	r0, r3
  73 0036 1A46     		mov	r2, r3
  74 0038 1946     		mov	r1, r3
  75 003a FFF7FEFF 		bl	set_rgb_led
  76              	.LVL7:
  77              		.loc 1 41 0 discriminator 1
  78 003e 4FF4FA70 		mov	r0, #500
  79 0042 FFF7FEFF 		bl	chThdSleep
  80              	.LVL8:
  81 0046 EAE7     		b	.L2
  82              	.L7:
  83              		.align	2
  84              	.L6:
  85 0048 00000000 		.word	__stack_chk_guard
  86              		.cfi_endproc
  87              	.LFE259:
  88              		.size	main, .-main
  89              		.section	.text.__stack_chk_fail,"ax",%progbits
  90              		.align	1
  91              		.p2align 4,,15
  92              		.global	__stack_chk_fail
  93              		.syntax unified
  94              		.thumb
  95              		.thumb_func
  96              		.fpu fpv4-sp-d16
  97              		.type	__stack_chk_fail, %function
  98              	__stack_chk_fail:
  99              	.LFB260:
 100              		.loc 1 49 0
 101              		.cfi_startproc
 102              		@ args = 0, pretend = 0, frame = 8
 103              		@ frame_needed = 0, uses_anonymous_args = 0
 104 0000 00B5     		push	{lr}
 105              		.cfi_def_cfa_offset 4
 106              		.cfi_offset 14, -4
 107 0002 084B     		ldr	r3, .L13
 108 0004 83B0     		sub	sp, sp, #12
 109              		.cfi_def_cfa_offset 16
 110              		.loc 1 49 0
 111 0006 1A68     		ldr	r2, [r3]
 112 0008 0192     		str	r2, [sp, #4]
 113              		.loc 1 50 0
 114 000a 019A     		ldr	r2, [sp, #4]
ARM GAS  /tmp/ccTbYGp2.s 			page 3


 115 000c 1B68     		ldr	r3, [r3]
 116 000e 9A42     		cmp	r2, r3
 117 0010 05D1     		bne	.L12
 118 0012 0548     		ldr	r0, .L13+4
 119              		.loc 1 51 0
 120 0014 03B0     		add	sp, sp, #12
 121              		.cfi_remember_state
 122              		.cfi_def_cfa_offset 4
 123              		@ sp needed
 124 0016 5DF804EB 		ldr	lr, [sp], #4
 125              		.cfi_restore 14
 126              		.cfi_def_cfa_offset 0
 127              		.loc 1 50 0
 128 001a FFF7FEBF 		b	chSysHalt
 129              	.LVL9:
 130              	.L12:
 131              		.cfi_restore_state
 132 001e FFF7FEFF 		bl	__stack_chk_fail
 133              	.LVL10:
 134              	.L14:
 135 0022 00BF     		.align	2
 136              	.L13:
 137 0024 00000000 		.word	__stack_chk_guard
 138 0028 00000000 		.word	.LC0
 139              		.cfi_endproc
 140              	.LFE260:
 141              		.size	__stack_chk_fail, .-__stack_chk_fail
 142              		.global	__stack_chk_guard
 143              		.section	.data.__stack_chk_guard,"aw",%progbits
 144              		.align	2
 145              		.type	__stack_chk_guard, %object
 146              		.size	__stack_chk_guard, 4
 147              	__stack_chk_guard:
 148 0000 96E3DEE2 		.word	-488709226
 149              		.section	.rodata.__stack_chk_fail.str1.4,"aMS",%progbits,1
 150              		.align	2
 151              	.LC0:
 152 0000 53746163 		.ascii	"Stack smashing detected\000"
 152      6B20736D 
 152      61736869 
 152      6E672064 
 152      65746563 
 153              		.text
 154              	.Letext0:
 155              		.file 2 "/home/uos/Documents/e-puck2_1_J/Eclipse_e-puck2/Tools/gcc-arm-none-eabi-7-2017-q4-major/a
 156              		.file 3 "/home/uos/Documents/e-puck2_1_J/Eclipse_e-puck2/Tools/gcc-arm-none-eabi-7-2017-q4-major/l
 157              		.file 4 "/home/uos/Documents/e-puck2_1_J/Eclipse_e-puck2/Tools/gcc-arm-none-eabi-7-2017-q4-major/a
 158              		.file 5 "/home/uos/Documents/e-puck2_1_J/Eclipse_e-puck2/Tools/gcc-arm-none-eabi-7-2017-q4-major/a
 159              		.file 6 "/home/uos/Documents/e-puck2_1_J/Eclipse_e-puck2/Tools/gcc-arm-none-eabi-7-2017-q4-major/a
 160              		.file 7 "/home/uos/Documents/e-puck2_1_J/Eclipse_e-puck2/Tools/gcc-arm-none-eabi-7-2017-q4-major/a
 161              		.file 8 "/home/uos/Documents/e-puck2_1_J/Eclipse_e-puck2/Tools/gcc-arm-none-eabi-7-2017-q4-major/a
 162              		.file 9 "/home/uos/Documents/e-puck2_1_J/Eclipse_e-puck2/Tools/gcc-arm-none-eabi-7-2017-q4-major/a
 163              		.file 10 "../e-puck2_main-processor/ChibiOS//os/rt/ports/ARMCMx/compilers/GCC/chtypes.h"
 164              		.file 11 "../e-puck2_main-processor/ChibiOS//os/rt/include/chsystypes.h"
 165              		.file 12 "../e-puck2_main-processor/ChibiOS//os/rt/include/chschd.h"
 166              		.file 13 "../e-puck2_main-processor/ChibiOS//os/ext/CMSIS/include/core_cm4.h"
 167              		.file 14 "../e-puck2_main-processor/ChibiOS//os/ext/CMSIS/ST/system_stm32f4xx.h"
ARM GAS  /tmp/ccTbYGp2.s 			page 4


 168              		.file 15 "../e-puck2_main-processor/ChibiOS//os/ext/CMSIS/ST/stm32f407xx.h"
 169              		.file 16 "../e-puck2_main-processor/ChibiOS//os/rt/ports/ARMCMx/chcore.h"
 170              		.file 17 "../e-puck2_main-processor/ChibiOS//os/rt/ports/ARMCMx/chcore_v7m.h"
 171              		.file 18 "../e-puck2_main-processor/ChibiOS//os/rt/include/chdebug.h"
 172              		.file 19 "../e-puck2_main-processor/ChibiOS//os/rt/include/chtm.h"
 173              		.file 20 "../e-puck2_main-processor/ChibiOS//os/rt/include/chstats.h"
 174              		.file 21 "../e-puck2_main-processor/ChibiOS//os/rt/include/chsem.h"
 175              		.file 22 "../e-puck2_main-processor/ChibiOS//os/rt/include/chmtx.h"
 176              		.file 23 "../e-puck2_main-processor/ChibiOS//os/rt/include/chregistry.h"
 177              		.file 24 "../e-puck2_main-processor/ChibiOS//os/rt/include/chevents.h"
 178              		.file 25 "../e-puck2_main-processor/ChibiOS//os/rt/include/chqueues.h"
 179              		.file 26 "../e-puck2_main-processor/ChibiOS//os/hal/ports/STM32/STM32F4xx/stm32_dma.h"
 180              		.file 27 "../e-puck2_main-processor/ChibiOS//os/hal/include/hal_ioblock.h"
 181              		.file 28 "../e-puck2_main-processor/ChibiOS//os/hal/ports/STM32/LLD/GPIOv2/pal_lld.h"
 182              		.file 29 "../e-puck2_main-processor/ChibiOS//os/hal/include/adc.h"
 183              		.file 30 "../e-puck2_main-processor/ChibiOS//os/hal/ports/STM32/STM32F4xx/adc_lld.h"
 184              		.file 31 "../e-puck2_main-processor/ChibiOS//os/hal/include/can.h"
 185              		.file 32 "../e-puck2_main-processor/ChibiOS//os/hal/ports/STM32/LLD/can_lld.h"
 186              		.file 33 "../e-puck2_main-processor/ChibiOS//os/hal/include/dac.h"
 187              		.file 34 "../e-puck2_main-processor/ChibiOS//os/hal/ports/STM32/LLD/DACv1/dac_lld.h"
 188              		.file 35 "../e-puck2_main-processor/ChibiOS//os/hal/include/ext.h"
 189              		.file 36 "../e-puck2_main-processor/ChibiOS//os/hal/ports/STM32/LLD/ext_lld.h"
 190              		.file 37 "../e-puck2_main-processor/ChibiOS//os/hal/include/gpt.h"
 191              		.file 38 "../e-puck2_main-processor/ChibiOS//os/hal/ports/STM32/LLD/TIMv1/gpt_lld.h"
 192              		.file 39 "../e-puck2_main-processor/ChibiOS//os/hal/ports/STM32/LLD/TIMv1/stm32_tim.h"
 193              		.file 40 "../e-puck2_main-processor/ChibiOS//os/hal/include/i2c.h"
 194              		.file 41 "../e-puck2_main-processor/ChibiOS//os/hal/ports/STM32/LLD/I2Cv1/i2c_lld.h"
 195              		.file 42 "../e-puck2_main-processor/ChibiOS//os/hal/include/i2s.h"
 196              		.file 43 "../e-puck2_main-processor/ChibiOS//os/hal/ports/STM32/LLD/SPIv1/i2s_lld.h"
 197              		.file 44 "../e-puck2_main-processor/ChibiOS//os/hal/include/pwm.h"
 198              		.file 45 "../e-puck2_main-processor/ChibiOS//os/hal/ports/STM32/LLD/TIMv1/pwm_lld.h"
 199              		.file 46 "../e-puck2_main-processor/ChibiOS//os/hal/include/serial.h"
 200              		.file 47 "../e-puck2_main-processor/ChibiOS//os/hal/ports/STM32/LLD/USARTv1/serial_lld.h"
 201              		.file 48 "../e-puck2_main-processor/ChibiOS//os/hal/include/sdc.h"
 202              		.file 49 "../e-puck2_main-processor/ChibiOS//os/hal/ports/STM32/LLD/sdc_lld.h"
 203              		.file 50 "../e-puck2_main-processor/ChibiOS//os/hal/include/spi.h"
 204              		.file 51 "../e-puck2_main-processor/ChibiOS//os/hal/ports/STM32/LLD/SPIv1/spi_lld.h"
 205              		.file 52 "../e-puck2_main-processor/ChibiOS//os/hal/include/usb.h"
 206              		.file 53 "../e-puck2_main-processor/ChibiOS//os/hal/ports/STM32/LLD/OTGv1/usb_lld.h"
 207              		.file 54 "../e-puck2_main-processor/ChibiOS//os/hal/ports/STM32/LLD/OTGv1/stm32_otg.h"
 208              		.file 55 "/home/uos/Documents/e-puck2_1_J/Eclipse_e-puck2/Tools/gcc-arm-none-eabi-7-2017-q4-major/
 209              		.file 56 "../e-puck2_main-processor/src/msgbus/messagebus.h"
 210              		.file 57 "../e-puck2_main-processor/src/parameter/parameter.h"
 211              		.file 58 "./main.h"
 212              		.file 59 "../e-puck2_main-processor/src/leds.h"
 213              		.file 60 "../e-puck2_main-processor/ChibiOS//os/rt/include/chsys.h"
 214              		.file 61 "../e-puck2_main-processor/ChibiOS//os/hal/include/hal.h"
 215              		.file 62 "../e-puck2_main-processor/src/memory_protection.h"
 216              		.file 63 "../e-puck2_main-processor/src/spi_comm.h"
 217              		.file 64 "../e-puck2_main-processor/ChibiOS//os/rt/include/chthreads.h"