ARM GAS  /tmp/cc9HK29k.s 			page 1


   1              		.cpu cortex-m4
   2              		.eabi_attribute 27, 1
   3              		.eabi_attribute 28, 1
   4              		.eabi_attribute 20, 1
   5              		.eabi_attribute 21, 1
   6              		.eabi_attribute 23, 3
   7              		.eabi_attribute 24, 1
   8              		.eabi_attribute 25, 1
   9              		.eabi_attribute 26, 1
  10              		.eabi_attribute 30, 2
  11              		.eabi_attribute 34, 1
  12              		.eabi_attribute 18, 4
  13              		.file	"main.c"
  14              		.text
  15              	.Ltext0:
  16              		.cfi_sections	.debug_frame
  17              		.section	.text.__stack_chk_fail,"ax",%progbits
  18              		.align	1
  19              		.p2align 4,,15
  20              		.global	__stack_chk_fail
  21              		.syntax unified
  22              		.thumb
  23              		.thumb_func
  24              		.fpu fpv4-sp-d16
  25              		.type	__stack_chk_fail, %function
  26              	__stack_chk_fail:
  27              	.LFB260:
  28              		.file 1 "main.c"
  29              		.loc 1 66 0
  30              		.cfi_startproc
  31              		@ args = 0, pretend = 0, frame = 8
  32              		@ frame_needed = 0, uses_anonymous_args = 0
  33 0000 00B5     		push	{lr}
  34              		.cfi_def_cfa_offset 4
  35              		.cfi_offset 14, -4
  36 0002 084B     		ldr	r3, .L7
  37 0004 83B0     		sub	sp, sp, #12
  38              		.cfi_def_cfa_offset 16
  39              		.loc 1 66 0
  40 0006 1A68     		ldr	r2, [r3]
  41 0008 0192     		str	r2, [sp, #4]
  42              		.loc 1 67 0
  43 000a 019A     		ldr	r2, [sp, #4]
  44 000c 1B68     		ldr	r3, [r3]
  45 000e 9A42     		cmp	r2, r3
  46 0010 05D1     		bne	.L6
  47 0012 0548     		ldr	r0, .L7+4
  48              		.loc 1 68 0
  49 0014 03B0     		add	sp, sp, #12
  50              		.cfi_remember_state
  51              		.cfi_def_cfa_offset 4
  52              		@ sp needed
  53 0016 5DF804EB 		ldr	lr, [sp], #4
  54              		.cfi_restore 14
  55              		.cfi_def_cfa_offset 0
  56              		.loc 1 67 0
  57 001a FFF7FEBF 		b	chSysHalt
ARM GAS  /tmp/cc9HK29k.s 			page 2


  58              	.LVL0:
  59              	.L6:
  60              		.cfi_restore_state
  61 001e FFF7FEFF 		bl	__stack_chk_fail
  62              	.LVL1:
  63              	.L8:
  64 0022 00BF     		.align	2
  65              	.L7:
  66 0024 00000000 		.word	__stack_chk_guard
  67 0028 00000000 		.word	.LC0
  68              		.cfi_endproc
  69              	.LFE260:
  70              		.size	__stack_chk_fail, .-__stack_chk_fail
  71              		.section	.text.spin_bot,"ax",%progbits
  72              		.align	1
  73              		.p2align 4,,15
  74              		.global	spin_bot
  75              		.syntax unified
  76              		.thumb
  77              		.thumb_func
  78              		.fpu fpv4-sp-d16
  79              		.type	spin_bot, %function
  80              	spin_bot:
  81              	.LFB261:
  82              		.loc 1 73 0
  83              		.cfi_startproc
  84              		@ args = 0, pretend = 0, frame = 8
  85              		@ frame_needed = 0, uses_anonymous_args = 0
  86              	.LVL2:
  87 0000 30B5     		push	{r4, r5, lr}
  88              		.cfi_def_cfa_offset 12
  89              		.cfi_offset 4, -12
  90              		.cfi_offset 5, -8
  91              		.cfi_offset 14, -4
  92 0002 0C4C     		ldr	r4, .L14
  93 0004 83B0     		sub	sp, sp, #12
  94              		.cfi_def_cfa_offset 24
  95              		.loc 1 73 0
  96 0006 0546     		mov	r5, r0
  97              		.loc 1 76 0
  98 0008 4FF49670 		mov	r0, #300
  99              	.LVL3:
 100              		.loc 1 73 0
 101 000c 2368     		ldr	r3, [r4]
 102 000e 0193     		str	r3, [sp, #4]
 103              	.LVL4:
 104              		.loc 1 76 0
 105 0010 00FB05F0 		mul	r0, r0, r5
 106 0014 FFF7FEFF 		bl	left_motor_set_speed
 107              	.LVL5:
 108              		.loc 1 77 0
 109 0018 019A     		ldr	r2, [sp, #4]
 110 001a 2368     		ldr	r3, [r4]
 111 001c 9A42     		cmp	r2, r3
 112 001e 07D1     		bne	.L13
 113 0020 0548     		ldr	r0, .L14+4
 114 0022 00FB05F0 		mul	r0, r0, r5
ARM GAS  /tmp/cc9HK29k.s 			page 3


 115              		.loc 1 78 0
 116 0026 03B0     		add	sp, sp, #12
 117              		.cfi_remember_state
 118              		.cfi_def_cfa_offset 12
 119              		@ sp needed
 120 0028 BDE83040 		pop	{r4, r5, lr}
 121              		.cfi_restore 14
 122              		.cfi_restore 5
 123              		.cfi_restore 4
 124              		.cfi_def_cfa_offset 0
 125              	.LVL6:
 126              		.loc 1 77 0
 127 002c FFF7FEBF 		b	right_motor_set_speed
 128              	.LVL7:
 129              	.L13:
 130              		.cfi_restore_state
 131 0030 FFF7FEFF 		bl	__stack_chk_fail
 132              	.LVL8:
 133              	.L15:
 134              		.align	2
 135              	.L14:
 136 0034 00000000 		.word	__stack_chk_guard
 137 0038 D4FEFFFF 		.word	-300
 138              		.cfi_endproc
 139              	.LFE261:
 140              		.size	spin_bot, .-spin_bot
 141              		.section	.text.blink_body_led,"ax",%progbits
 142              		.align	1
 143              		.p2align 4,,15
 144              		.global	blink_body_led
 145              		.syntax unified
 146              		.thumb
 147              		.thumb_func
 148              		.fpu fpv4-sp-d16
 149              		.type	blink_body_led, %function
 150              	blink_body_led:
 151              	.LFB262:
 152              		.loc 1 81 0
 153              		.cfi_startproc
 154              		@ args = 0, pretend = 0, frame = 8
 155              		@ frame_needed = 0, uses_anonymous_args = 0
 156 0000 10B5     		push	{r4, lr}
 157              		.cfi_def_cfa_offset 8
 158              		.cfi_offset 4, -8
 159              		.cfi_offset 14, -4
 160 0002 0D4C     		ldr	r4, .L21
 161 0004 82B0     		sub	sp, sp, #8
 162              		.cfi_def_cfa_offset 16
 163              		.loc 1 81 0
 164 0006 2368     		ldr	r3, [r4]
 165 0008 0193     		str	r3, [sp, #4]
 166              		.loc 1 82 0
 167 000a 0120     		movs	r0, #1
 168 000c FFF7FEFF 		bl	set_body_led
 169              	.LVL9:
 170              		.loc 1 84 0
 171 0010 4FF4FA70 		mov	r0, #500
ARM GAS  /tmp/cc9HK29k.s 			page 4


 172 0014 FFF7FEFF 		bl	chThdSleep
 173              	.LVL10:
 174              		.loc 1 85 0
 175 0018 0020     		movs	r0, #0
 176 001a FFF7FEFF 		bl	set_body_led
 177              	.LVL11:
 178              		.loc 1 87 0
 179 001e 019A     		ldr	r2, [sp, #4]
 180 0020 2368     		ldr	r3, [r4]
 181 0022 9A42     		cmp	r2, r3
 182 0024 06D1     		bne	.L20
 183 0026 4FF4FA70 		mov	r0, #500
 184              		.loc 1 88 0
 185 002a 02B0     		add	sp, sp, #8
 186              		.cfi_remember_state
 187              		.cfi_def_cfa_offset 8
 188              		@ sp needed
 189 002c BDE81040 		pop	{r4, lr}
 190              		.cfi_restore 14
 191              		.cfi_restore 4
 192              		.cfi_def_cfa_offset 0
 193              		.loc 1 87 0
 194 0030 FFF7FEBF 		b	chThdSleep
 195              	.LVL12:
 196              	.L20:
 197              		.cfi_restore_state
 198 0034 FFF7FEFF 		bl	__stack_chk_fail
 199              	.LVL13:
 200              	.L22:
 201              		.align	2
 202              	.L21:
 203 0038 00000000 		.word	__stack_chk_guard
 204              		.cfi_endproc
 205              	.LFE262:
 206              		.size	blink_body_led, .-blink_body_led
 207              		.section	.text.startup.main,"ax",%progbits
 208              		.align	1
 209              		.p2align 4,,15
 210              		.global	main
 211              		.syntax unified
 212              		.thumb
 213              		.thumb_func
 214              		.fpu fpv4-sp-d16
 215              		.type	main, %function
 216              	main:
 217              	.LFB259:
 218              		.loc 1 21 0
 219              		.cfi_startproc
 220              		@ args = 0, pretend = 0, frame = 8
 221              		@ frame_needed = 0, uses_anonymous_args = 0
 222 0000 2DE9F041 		push	{r4, r5, r6, r7, r8, lr}
 223              		.cfi_def_cfa_offset 24
 224              		.cfi_offset 4, -24
 225              		.cfi_offset 5, -20
 226              		.cfi_offset 6, -16
 227              		.cfi_offset 7, -12
 228              		.cfi_offset 8, -8
ARM GAS  /tmp/cc9HK29k.s 			page 5


 229              		.cfi_offset 14, -4
 230 0004 1C4B     		ldr	r3, .L31
 231              	.LBB7:
 232              	.LBB8:
 233              	.LBB9:
 234              		.loc 1 77 0
 235 0006 DFF87480 		ldr	r8, .L31+4
 236              	.LBE9:
 237              	.LBE8:
 238              	.LBE7:
 239              		.loc 1 21 0
 240 000a 1B68     		ldr	r3, [r3]
 241 000c 82B0     		sub	sp, sp, #8
 242              		.cfi_def_cfa_offset 32
 243              		.loc 1 35 0
 244 000e 0024     		movs	r4, #0
 245              		.loc 1 21 0
 246 0010 0193     		str	r3, [sp, #4]
 247              		.loc 1 23 0
 248 0012 FFF7FEFF 		bl	halInit
 249              	.LVL14:
 250              		.loc 1 24 0
 251 0016 FFF7FEFF 		bl	chSysInit
 252              	.LVL15:
 253              		.loc 1 25 0
 254 001a FFF7FEFF 		bl	mpu_init
 255              	.LVL16:
 256              		.loc 1 28 0
 257 001e FFF7FEFF 		bl	motors_init
 258              	.LVL17:
 259              		.loc 1 29 0
 260 0022 FFF7FEFF 		bl	clear_leds
 261              	.LVL18:
 262              		.loc 1 30 0
 263 0026 FFF7FEFF 		bl	spi_comm_start
 264              	.LVL19:
 265              	.LBB14:
 266              	.LBB15:
 267              		.loc 1 76 0
 268 002a 4FF49670 		mov	r0, #300
 269 002e FFF7FEFF 		bl	left_motor_set_speed
 270              	.LVL20:
 271              		.loc 1 77 0
 272 0032 4046     		mov	r0, r8
 273 0034 FFF7FEFF 		bl	right_motor_set_speed
 274              	.LVL21:
 275              	.LBE15:
 276              	.LBE14:
 277              		.loc 1 33 0
 278 0038 0126     		movs	r6, #1
 279              	.LBB16:
 280              	.LBB12:
 281              	.LBB10:
 282              		.loc 1 76 0
 283 003a 4FF49677 		mov	r7, #300
 284 003e 0AE0     		b	.L25
 285              	.LVL22:
ARM GAS  /tmp/cc9HK29k.s 			page 6


 286              	.L24:
 287              	.LBE10:
 288              	.LBE12:
 289              		.loc 1 52 0
 290 0040 FFF7FEFF 		bl	blink_body_led
 291              	.LVL23:
 292              		.loc 1 55 0
 293 0044 0134     		adds	r4, r4, #1
 294              		.loc 1 58 0
 295 0046 4FF4FA70 		mov	r0, #500
 296              		.loc 1 55 0
 297 004a 94FBF5F3 		sdiv	r3, r4, r5
 298 004e 05FB1344 		mls	r4, r5, r3, r4
 299              	.LVL24:
 300              		.loc 1 58 0
 301 0052 FFF7FEFF 		bl	chThdSleep
 302              	.LVL25:
 303              	.L25:
 304              		.loc 1 42 0
 305 0056 FFF7FEFF 		bl	get_selector
 306              	.LVL26:
 307 005a 0546     		mov	r5, r0
 308              	.LVL27:
 309              		.loc 1 46 0
 310 005c 002C     		cmp	r4, #0
 311 005e EFD1     		bne	.L24
 312              		.loc 1 46 0 is_stmt 0 discriminator 1
 313 0060 0028     		cmp	r0, #0
 314 0062 EDD0     		beq	.L24
 315              	.LVL28:
 316              	.LBB13:
 317              	.LBB11:
 318              		.loc 1 76 0 is_stmt 1
 319 0064 07FB06F0 		mul	r0, r7, r6
 320              	.LVL29:
 321 0068 FFF7FEFF 		bl	left_motor_set_speed
 322              	.LVL30:
 323              		.loc 1 77 0
 324 006c 08FB06F0 		mul	r0, r8, r6
 325 0070 FFF7FEFF 		bl	right_motor_set_speed
 326              	.LVL31:
 327              	.LBE11:
 328              	.LBE13:
 329              		.loc 1 48 0
 330 0074 7642     		negs	r6, r6
 331              	.LVL32:
 332 0076 E3E7     		b	.L24
 333              	.L32:
 334              		.align	2
 335              	.L31:
 336 0078 00000000 		.word	__stack_chk_guard
 337 007c D4FEFFFF 		.word	-300
 338              	.LBE16:
 339              		.cfi_endproc
 340              	.LFE259:
 341              		.size	main, .-main
 342              		.global	__stack_chk_guard
ARM GAS  /tmp/cc9HK29k.s 			page 7


 343              		.section	.data.__stack_chk_guard,"aw",%progbits
 344              		.align	2
 345              		.type	__stack_chk_guard, %object
 346              		.size	__stack_chk_guard, 4
 347              	__stack_chk_guard:
 348 0000 96E3DEE2 		.word	-488709226
 349              		.section	.rodata.__stack_chk_fail.str1.4,"aMS",%progbits,1
 350              		.align	2
 351              	.LC0:
 352 0000 53746163 		.ascii	"Stack smashing detected\000"
 352      6B20736D 
 352      61736869 
 352      6E672064 
 352      65746563 
 353              		.text
 354              	.Letext0:
 355              		.file 2 "/home/uos/Documents/e-puck2_1_J/Eclipse_e-puck2/Tools/gcc-arm-none-eabi-7-2017-q4-major/a
 356              		.file 3 "/home/uos/Documents/e-puck2_1_J/Eclipse_e-puck2/Tools/gcc-arm-none-eabi-7-2017-q4-major/l
 357              		.file 4 "/home/uos/Documents/e-puck2_1_J/Eclipse_e-puck2/Tools/gcc-arm-none-eabi-7-2017-q4-major/a
 358              		.file 5 "/home/uos/Documents/e-puck2_1_J/Eclipse_e-puck2/Tools/gcc-arm-none-eabi-7-2017-q4-major/a
 359              		.file 6 "/home/uos/Documents/e-puck2_1_J/Eclipse_e-puck2/Tools/gcc-arm-none-eabi-7-2017-q4-major/a
 360              		.file 7 "/home/uos/Documents/e-puck2_1_J/Eclipse_e-puck2/Tools/gcc-arm-none-eabi-7-2017-q4-major/a
 361              		.file 8 "/home/uos/Documents/e-puck2_1_J/Eclipse_e-puck2/Tools/gcc-arm-none-eabi-7-2017-q4-major/a
 362              		.file 9 "/home/uos/Documents/e-puck2_1_J/Eclipse_e-puck2/Tools/gcc-arm-none-eabi-7-2017-q4-major/a
 363              		.file 10 "../e-puck2_main-processor/ChibiOS//os/rt/ports/ARMCMx/compilers/GCC/chtypes.h"
 364              		.file 11 "../e-puck2_main-processor/ChibiOS//os/rt/include/chsystypes.h"
 365              		.file 12 "../e-puck2_main-processor/ChibiOS//os/rt/include/chschd.h"
 366              		.file 13 "../e-puck2_main-processor/ChibiOS//os/ext/CMSIS/include/core_cm4.h"
 367              		.file 14 "../e-puck2_main-processor/ChibiOS//os/ext/CMSIS/ST/system_stm32f4xx.h"
 368              		.file 15 "../e-puck2_main-processor/ChibiOS//os/ext/CMSIS/ST/stm32f407xx.h"
 369              		.file 16 "../e-puck2_main-processor/ChibiOS//os/rt/ports/ARMCMx/chcore.h"
 370              		.file 17 "../e-puck2_main-processor/ChibiOS//os/rt/ports/ARMCMx/chcore_v7m.h"
 371              		.file 18 "../e-puck2_main-processor/ChibiOS//os/rt/include/chdebug.h"
 372              		.file 19 "../e-puck2_main-processor/ChibiOS//os/rt/include/chtm.h"
 373              		.file 20 "../e-puck2_main-processor/ChibiOS//os/rt/include/chstats.h"
 374              		.file 21 "../e-puck2_main-processor/ChibiOS//os/rt/include/chsem.h"
 375              		.file 22 "../e-puck2_main-processor/ChibiOS//os/rt/include/chmtx.h"
 376              		.file 23 "../e-puck2_main-processor/ChibiOS//os/rt/include/chregistry.h"
 377              		.file 24 "../e-puck2_main-processor/ChibiOS//os/rt/include/chevents.h"
 378              		.file 25 "../e-puck2_main-processor/ChibiOS//os/rt/include/chqueues.h"
 379              		.file 26 "../e-puck2_main-processor/ChibiOS//os/hal/ports/STM32/STM32F4xx/stm32_dma.h"
 380              		.file 27 "../e-puck2_main-processor/ChibiOS//os/hal/include/hal_ioblock.h"
 381              		.file 28 "../e-puck2_main-processor/ChibiOS//os/hal/ports/STM32/LLD/GPIOv2/pal_lld.h"
 382              		.file 29 "../e-puck2_main-processor/ChibiOS//os/hal/include/adc.h"
 383              		.file 30 "../e-puck2_main-processor/ChibiOS//os/hal/ports/STM32/STM32F4xx/adc_lld.h"
 384              		.file 31 "../e-puck2_main-processor/ChibiOS//os/hal/include/can.h"
 385              		.file 32 "../e-puck2_main-processor/ChibiOS//os/hal/ports/STM32/LLD/can_lld.h"
 386              		.file 33 "../e-puck2_main-processor/ChibiOS//os/hal/include/dac.h"
 387              		.file 34 "../e-puck2_main-processor/ChibiOS//os/hal/ports/STM32/LLD/DACv1/dac_lld.h"
 388              		.file 35 "../e-puck2_main-processor/ChibiOS//os/hal/include/ext.h"
 389              		.file 36 "../e-puck2_main-processor/ChibiOS//os/hal/ports/STM32/LLD/ext_lld.h"
 390              		.file 37 "../e-puck2_main-processor/ChibiOS//os/hal/include/gpt.h"
 391              		.file 38 "../e-puck2_main-processor/ChibiOS//os/hal/ports/STM32/LLD/TIMv1/gpt_lld.h"
 392              		.file 39 "../e-puck2_main-processor/ChibiOS//os/hal/ports/STM32/LLD/TIMv1/stm32_tim.h"
 393              		.file 40 "../e-puck2_main-processor/ChibiOS//os/hal/include/i2c.h"
 394              		.file 41 "../e-puck2_main-processor/ChibiOS//os/hal/ports/STM32/LLD/I2Cv1/i2c_lld.h"
 395              		.file 42 "../e-puck2_main-processor/ChibiOS//os/hal/include/i2s.h"
ARM GAS  /tmp/cc9HK29k.s 			page 8


 396              		.file 43 "../e-puck2_main-processor/ChibiOS//os/hal/ports/STM32/LLD/SPIv1/i2s_lld.h"
 397              		.file 44 "../e-puck2_main-processor/ChibiOS//os/hal/include/pwm.h"
 398              		.file 45 "../e-puck2_main-processor/ChibiOS//os/hal/ports/STM32/LLD/TIMv1/pwm_lld.h"
 399              		.file 46 "../e-puck2_main-processor/ChibiOS//os/hal/include/serial.h"
 400              		.file 47 "../e-puck2_main-processor/ChibiOS//os/hal/ports/STM32/LLD/USARTv1/serial_lld.h"
 401              		.file 48 "../e-puck2_main-processor/ChibiOS//os/hal/include/sdc.h"
 402              		.file 49 "../e-puck2_main-processor/ChibiOS//os/hal/ports/STM32/LLD/sdc_lld.h"
 403              		.file 50 "../e-puck2_main-processor/ChibiOS//os/hal/include/spi.h"
 404              		.file 51 "../e-puck2_main-processor/ChibiOS//os/hal/ports/STM32/LLD/SPIv1/spi_lld.h"
 405              		.file 52 "../e-puck2_main-processor/ChibiOS//os/hal/include/usb.h"
 406              		.file 53 "../e-puck2_main-processor/ChibiOS//os/hal/ports/STM32/LLD/OTGv1/usb_lld.h"
 407              		.file 54 "../e-puck2_main-processor/ChibiOS//os/hal/ports/STM32/LLD/OTGv1/stm32_otg.h"
 408              		.file 55 "/home/uos/Documents/e-puck2_1_J/Eclipse_e-puck2/Tools/gcc-arm-none-eabi-7-2017-q4-major/
 409              		.file 56 "../e-puck2_main-processor/src/msgbus/messagebus.h"
 410              		.file 57 "../e-puck2_main-processor/src/parameter/parameter.h"
 411              		.file 58 "./main.h"
 412              		.file 59 "../e-puck2_main-processor/src/motors.h"
 413              		.file 60 "../e-puck2_main-processor/src/leds.h"
 414              		.file 61 "../e-puck2_main-processor/ChibiOS//os/rt/include/chthreads.h"
 415              		.file 62 "../e-puck2_main-processor/ChibiOS//os/rt/include/chsys.h"
 416              		.file 63 "../e-puck2_main-processor/src/selector.h"
 417              		.file 64 "../e-puck2_main-processor/ChibiOS//os/hal/include/hal.h"
 418              		.file 65 "../e-puck2_main-processor/src/memory_protection.h"
 419              		.file 66 "../e-puck2_main-processor/src/spi_comm.h"